target datalayout = "e-m:e-p270:32:32-p271:32:32-p272:64:64-i64:64-i128:128-f80:128-n8:16:32:64-S128"
target triple = "x86_64-pc-linux-gnu"

%"struct.cv::QRCodeEncoder::Params" = type { i32, i32, i32, i32 }

; Function Attrs: mustprogress nounwind uwtable
define void @_ZN2cv13QRCodeEncoder6ParamsC2Ev(ptr noundef nonnull align 4 dereferenceable(16) %0) unnamed_addr #0 align 2 {
  %2 = alloca ptr, align 8
  store ptr %0, ptr %2, align 8, !tbaa !10
  %3 = load ptr, ptr %2, align 8
  %4 = getelementptr inbounds nuw %"struct.cv::QRCodeEncoder::Params", ptr %3, i32 0, i32 0
  store i32 0, ptr %4, align 4, !tbaa !12
  %5 = getelementptr inbounds nuw %"struct.cv::QRCodeEncoder::Params", ptr %3, i32 0, i32 1
  store i32 0, ptr %5, align 4, !tbaa !17
  %6 = getelementptr inbounds nuw %"struct.cv::QRCodeEncoder::Params", ptr %3, i32 0, i32 2
  store i32 -1, ptr %6, align 4, !tbaa !18
  %7 = getelementptr inbounds nuw %"struct.cv::QRCodeEncoder::Params", ptr %3, i32 0, i32 3
  store i32 1, ptr %7, align 4, !tbaa !19
  ret void
}