; Function Attrs: mustprogress nofree norecurse nosync nounwind willreturn memory(argmem: write) uwtable
define void @_ZN2cv13QRCodeEncoder6ParamsC2Ev(ptr noundef nonnull writeonly align 4 captures(none) dereferenceable(16) initializes((0, 16)) %0) unnamed_addr #0 align 2 {
  store i32 0, ptr %0, align 4, !tbaa !6
  %2 = getelementptr inbounds nuw i8, ptr %0, i64 4
  store i32 0, ptr %2, align 4, !tbaa !12
  %3 = getelementptr inbounds nuw i8, ptr %0, i64 8
  store i32 -1, ptr %3, align 4, !tbaa !13
  %4 = getelementptr inbounds nuw i8, ptr %0, i64 12
  store i32 1, ptr %4, align 4, !tbaa !14
  ret void
}